; Function Attrs: nounwind uwtable
define hidden zeroext i1 @SDL_FlushAudioStream_REAL(ptr noundef readonly captures(address_is_null) %0) local_unnamed_addr #2 {
  %.not = icmp eq ptr %0, null
  br i1 %.not, label %2, label %4

2:                                                ; preds = %1
  %3 = tail call zeroext i1 (ptr, ...) @SDL_SetError_REAL(ptr noundef nonnull @.str, ptr noundef nonnull @.str.1) #11
  br label %9

4:                                                ; preds = %1
  %5 = load ptr, ptr %0, align 8
  tail call void @SDL_LockMutex_REAL(ptr noundef %5) #11
  %6 = getelementptr inbounds nuw i8, ptr %0, i64 96
  %7 = load ptr, ptr %6, align 8
  tail call void @SDL_FlushAudioQueue(ptr noundef %7) #11
  %8 = load ptr, ptr %0, align 8
  tail call void @SDL_UnlockMutex_REAL(ptr noundef %8) #11
  br label %9

9:                                                ; preds = %4, %2
  %.0 = phi i1 [ true, %4 ], [ %3, %2 ]
  ret i1 %.0
}